; ModuleID = '24/2418.c'
source_filename = "24/2418.c"
target datalayout = "e-m:e-p270:32:32-p271:32:32-p272:64:64-i64:64-f80:128-n8:16:32:64-S128"
target triple = "x86_64-pc-linux-gnu"

@.str = private unnamed_addr constant [4 x i8] c"%s\0A\00", align 1
@.str.1 = private unnamed_addr constant [3 x i8] c"%s\00", align 1

; Function Attrs: noinline nounwind uwtable
define dso_local i32 @main() #0 {
  %1 = alloca i32, align 4
  %2 = alloca [201 x [100 x i8]], align 16
  %3 = alloca [201 x i32], align 16
  %4 = alloca i32, align 4
  %5 = alloca i32, align 4
  %6 = alloca [100 x i8], align 16
  %7 = alloca i32, align 4
  %8 = alloca i32, align 4
  %9 = alloca i32, align 4
  store i32 0, i32* %1, align 4
  %10 = bitcast [201 x [100 x i8]]* %2 to i8*
  call void @llvm.memset.p0i8.i64(i8* align 16 %10, i8 0, i64 20100, i1 false)
  %11 = bitcast [201 x i32]* %3 to i8*
  call void @llvm.memset.p0i8.i64(i8* align 16 %11, i8 0, i64 804, i1 false)
  store i32 0, i32* %4, align 4
  store i32 0, i32* %5, align 4
  %12 = bitcast [100 x i8]* %6 to i8*
  call void @llvm.memset.p0i8.i64(i8* align 16 %12, i8 0, i64 100, i1 false)
  store i32 0, i32* %7, align 4
  store i32 -1, i32* %8, align 4
  store i32 -1, i32* %9, align 4
  br label %13

13:                                               ; preds = %0, %78
  %14 = call i32 @getchar()
  store i32 %14, i32* %5, align 4
  %15 = load i32, i32* %5, align 4
  %16 = icmp eq i32 %15, 32
  br i1 %16, label %23, label %17

17:                                               ; preds = %13
  %18 = load i32, i32* %5, align 4
  %19 = icmp eq i32 %18, 44
  br i1 %19, label %23, label %20

20:                                               ; preds = %17
  %21 = load i32, i32* %5, align 4
  %22 = icmp eq i32 %21, 10
  br i1 %22, label %23, label %71

23:                                               ; preds = %20, %17, %13
  %24 = load i32, i32* %7, align 4
  %25 = icmp sgt i32 %24, 0
  br i1 %25, label %26, label %66

26:                                               ; preds = %23
  %27 = load i32, i32* %7, align 4
  %28 = sext i32 %27 to i64
  %29 = getelementptr inbounds [100 x i8], [100 x i8]* %6, i64 0, i64 %28
  store i8 0, i8* %29, align 1
  %30 = load i32, i32* %4, align 4
  %31 = sext i32 %30 to i64
  %32 = getelementptr inbounds [201 x [100 x i8]], [201 x [100 x i8]]* %2, i64 0, i64 %31
  %33 = getelementptr inbounds [100 x i8], [100 x i8]* %32, i64 0, i64 0
  %34 = getelementptr inbounds [100 x i8], [100 x i8]* %6, i64 0, i64 0
  %35 = call i8* @strcpy(i8* %33, i8* %34) #4
  %36 = load i32, i32* %7, align 4
  %37 = load i32, i32* %4, align 4
  %38 = sext i32 %37 to i64
  %39 = getelementptr inbounds [201 x i32], [201 x i32]* %3, i64 0, i64 %38
  store i32 %36, i32* %39, align 4
  %40 = load i32, i32* %8, align 4
  %41 = icmp eq i32 %40, -1
  br i1 %41, label %49, label %42

42:                                               ; preds = %26
  %43 = load i32, i32* %7, align 4
  %44 = load i32, i32* %8, align 4
  %45 = sext i32 %44 to i64
  %46 = getelementptr inbounds [201 x i32], [201 x i32]* %3, i64 0, i64 %45
  %47 = load i32, i32* %46, align 4
  %48 = icmp sgt i32 %43, %47
  br i1 %48, label %49, label %51

49:                                               ; preds = %42, %26
  %50 = load i32, i32* %4, align 4
  store i32 %50, i32* %8, align 4
  br label %51

51:                                               ; preds = %49, %42
  %52 = load i32, i32* %9, align 4
  %53 = icmp eq i32 %52, -1
  br i1 %53, label %61, label %54

54:                                               ; preds = %51
  %55 = load i32, i32* %7, align 4
  %56 = load i32, i32* %9, align 4
  %57 = sext i32 %56 to i64
  %58 = getelementptr inbounds [201 x i32], [201 x i32]* %3, i64 0, i64 %57
  %59 = load i32, i32* %58, align 4
  %60 = icmp slt i32 %55, %59
  br i1 %60, label %61, label %63

61:                                               ; preds = %54, %51
  %62 = load i32, i32* %4, align 4
  store i32 %62, i32* %9, align 4
  br label %63

63:                                               ; preds = %61, %54
  %64 = load i32, i32* %4, align 4
  %65 = add nsw i32 %64, 1
  store i32 %65, i32* %4, align 4
  store i32 0, i32* %7, align 4
  br label %66

66:                                               ; preds = %63, %23
  %67 = load i32, i32* %5, align 4
  %68 = icmp eq i32 %67, 10
  br i1 %68, label %69, label %70

69:                                               ; preds = %66
  br label %79

70:                                               ; preds = %66
  br label %78

71:                                               ; preds = %20
  %72 = load i32, i32* %5, align 4
  %73 = trunc i32 %72 to i8
  %74 = load i32, i32* %7, align 4
  %75 = add nsw i32 %74, 1
  store i32 %75, i32* %7, align 4
  %76 = sext i32 %74 to i64
  %77 = getelementptr inbounds [100 x i8], [100 x i8]* %6, i64 0, i64 %76
  store i8 %73, i8* %77, align 1
  br label %78

78:                                               ; preds = %71, %70
  br label %13

79:                                               ; preds = %69
  %80 = load i32, i32* %8, align 4
  %81 = sext i32 %80 to i64
  %82 = getelementptr inbounds [201 x [100 x i8]], [201 x [100 x i8]]* %2, i64 0, i64 %81
  %83 = getelementptr inbounds [100 x i8], [100 x i8]* %82, i64 0, i64 0
  %84 = call i32 (i8*, ...) @printf(i8* getelementptr inbounds ([4 x i8], [4 x i8]* @.str, i64 0, i64 0), i8* %83)
  %85 = load i32, i32* %9, align 4
  %86 = sext i32 %85 to i64
  %87 = getelementptr inbounds [201 x [100 x i8]], [201 x [100 x i8]]* %2, i64 0, i64 %86
  %88 = getelementptr inbounds [100 x i8], [100 x i8]* %87, i64 0, i64 0
  %89 = call i32 (i8*, ...) @printf(i8* getelementptr inbounds ([3 x i8], [3 x i8]* @.str.1, i64 0, i64 0), i8* %88)
  ret i32 0
}

; Function Attrs: argmemonly nounwind willreturn
declare void @llvm.memset.p0i8.i64(i8* nocapture writeonly, i8, i64, i1 immarg) #1

declare dso_local i32 @getchar() #2

; Function Attrs: nounwind
declare dso_local i8* @strcpy(i8*, i8*) #3

declare dso_local i32 @printf(i8*, ...) #2


!llvm.module.flags = !{!0}
!llvm.ident = !{!1}

!0 = !{i32 1, !"wchar_size", i32 4}
!1 = !{!"clang version 10.0.0-4ubuntu1 "}
